; Function Attrs: mustprogress uwtable
define void @_ZN19OpenColorIO_v2_5dev15SetLoggingLevelENS_12LoggingLevelE(i32 noundef %0) local_unnamed_addr #3 personality ptr @__gxx_personality_v0 {
  %2 = tail call noundef i32 @pthread_mutex_lock(ptr noundef nonnull align 8 dereferenceable(40) @_ZN19OpenColorIO_v2_5dev12_GLOBAL__N_110g_logmutexE) #20
  %.not.i.i = icmp eq i32 %2, 0
  br i1 %.not.i.i, label %_ZNSt10lock_guardISt5mutexEC2ERS0_.exit, label %3

3:                                                ; preds = %1
  tail call void @_ZSt20__throw_system_errori(i32 noundef %2) #22
  unreachable

_ZNSt10lock_guardISt5mutexEC2ERS0_.exit:          ; preds = %1
  invoke fastcc void @_ZN19OpenColorIO_v2_5dev12_GLOBAL__N_111InitLoggingEv()
          to label %4 unwind label %6

4:                                                ; preds = %_ZNSt10lock_guardISt5mutexEC2ERS0_.exit
  %.b2 = load i1, ptr @_ZN19OpenColorIO_v2_5dev12_GLOBAL__N_117g_loggingOverrideE, align 1
  br i1 %.b2, label %9, label %5

5:                                                ; preds = %4
  store i32 %0, ptr @_ZN19OpenColorIO_v2_5dev12_GLOBAL__N_114g_logginglevelE, align 4, !tbaa !21
  br label %9

6:                                                ; preds = %_ZNSt10lock_guardISt5mutexEC2ERS0_.exit
  %7 = landingpad { ptr, i32 }
          cleanup
  %8 = tail call noundef i32 @pthread_mutex_unlock(ptr noundef nonnull align 8 dereferenceable(40) @_ZN19OpenColorIO_v2_5dev12_GLOBAL__N_110g_logmutexE) #20
  resume { ptr, i32 } %7

9:                                                ; preds = %5, %4
  %10 = tail call noundef i32 @pthread_mutex_unlock(ptr noundef nonnull align 8 dereferenceable(40) @_ZN19OpenColorIO_v2_5dev12_GLOBAL__N_110g_logmutexE) #20
  ret void
}